target datalayout = "e-m:e-p270:32:32-p271:32:32-p272:64:64-i64:64-i128:128-f80:128-n8:16:32:64-S128"
target triple = "x86_64-pc-linux-gnu"

%class.Node_List = type <{ %class.Node_Array, i32, [4 x i8] }>
%class.Node_Array = type { ptr, i32, ptr }
%class.IdealLoopTree = type <{ ptr, ptr, ptr, ptr, ptr, ptr, i32, i32, %class.Node_List, i16, i8, [5 x i8], ptr, ptr, i8, [7 x i8] }>

; Function Attrs: mustprogress nounwind uwtable
define hidden noundef i32 @_ZN13IdealLoopTree8set_nestEj(ptr noundef nonnull align 8 dereferenceable(113) %0, i32 noundef %1) #1 align 2 {
  %3 = alloca ptr, align 8
  %4 = alloca i32, align 4
  %5 = alloca i32, align 4
  store ptr %0, ptr %3, align 8
  store i32 %1, ptr %4, align 4
  %6 = load ptr, ptr %3, align 8
  %7 = load i32, ptr %4, align 4
  %8 = trunc i32 %7 to i16
  %9 = getelementptr inbounds %class.IdealLoopTree, ptr %6, i32 0, i32 9
  store i16 %8, ptr %9, align 8
  %10 = getelementptr inbounds %class.IdealLoopTree, ptr %6, i32 0, i32 10
  %11 = load i8, ptr %10, align 2
  %12 = lshr i8 %11, 1
  %13 = and i8 %12, 1
  %14 = zext i8 %13 to i32
  store i32 %14, ptr %5, align 4
  %15 = getelementptr inbounds %class.IdealLoopTree, ptr %6, i32 0, i32 2
  %16 = load ptr, ptr %15, align 8
  %17 = icmp ne ptr %16, null
  br i1 %17, label %18, label %26

18:                                               ; preds = %2
  %19 = getelementptr inbounds %class.IdealLoopTree, ptr %6, i32 0, i32 2
  %20 = load ptr, ptr %19, align 8
  %21 = load i32, ptr %4, align 4
  %22 = add i32 %21, 1
  %23 = call noundef i32 @_ZN13IdealLoopTree8set_nestEj(ptr noundef nonnull align 8 dereferenceable(113) %20, i32 noundef %22)
  %24 = load i32, ptr %5, align 4
  %25 = or i32 %24, %23
  store i32 %25, ptr %5, align 4
  br label %26

26:                                               ; preds = %18, %2
  %27 = load i32, ptr %5, align 4
  %28 = icmp ne i32 %27, 0
  br i1 %28, label %29, label %34

29:                                               ; preds = %26
  %30 = getelementptr inbounds %class.IdealLoopTree, ptr %6, i32 0, i32 10
  %31 = load i8, ptr %30, align 2
  %32 = and i8 %31, -3
  %33 = or i8 %32, 2
  store i8 %33, ptr %30, align 2
  br label %34

34:                                               ; preds = %29, %26
  %35 = getelementptr inbounds %class.IdealLoopTree, ptr %6, i32 0, i32 1
  %36 = load ptr, ptr %35, align 8
  %37 = icmp ne ptr %36, null
  br i1 %37, label %38, label %45

38:                                               ; preds = %34
  %39 = getelementptr inbounds %class.IdealLoopTree, ptr %6, i32 0, i32 1
  %40 = load ptr, ptr %39, align 8
  %41 = load i32, ptr %4, align 4
  %42 = call noundef i32 @_ZN13IdealLoopTree8set_nestEj(ptr noundef nonnull align 8 dereferenceable(113) %40, i32 noundef %41)
  %43 = load i32, ptr %5, align 4
  %44 = or i32 %43, %42
  store i32 %44, ptr %5, align 4
  br label %45

45:                                               ; preds = %38, %34
  %46 = load i32, ptr %5, align 4
  ret i32 %46
}