; Function Attrs: mustprogress nofree nosync nounwind memory(readwrite, inaccessiblemem: none) uwtable
define hidden noundef range(i32 0, 2) i32 @_ZN13IdealLoopTree8set_nestEj(ptr nocapture noundef nonnull align 8 dereferenceable(113) %0, i32 noundef %1) local_unnamed_addr #6 align 2 {
  %3 = trunc i32 %1 to i16
  %4 = add i32 %1, 1
  br label %tailrecurse

tailrecurse:                                      ; preds = %20, %2
  %accumulator.tr = phi i32 [ 0, %2 ], [ %23, %20 ]
  %.tr = phi ptr [ %0, %2 ], [ %22, %20 ]
  %5 = getelementptr inbounds i8, ptr %.tr, i64 88
  store i16 %3, ptr %5, align 8
  %6 = getelementptr inbounds i8, ptr %.tr, i64 90
  %7 = load i8, ptr %6, align 2
  %8 = lshr i8 %7, 1
  %9 = and i8 %8, 1
  %10 = zext nneg i8 %9 to i32
  %11 = getelementptr inbounds i8, ptr %.tr, i64 16
  %12 = load ptr, ptr %11, align 8
  %.not = icmp eq ptr %12, null
  br i1 %.not, label %16, label %13

13:                                               ; preds = %tailrecurse
  %14 = tail call noundef i32 @_ZN13IdealLoopTree8set_nestEj(ptr noundef nonnull align 8 dereferenceable(113) %12, i32 noundef %4)
  %15 = or i32 %14, %10
  br label %16

16:                                               ; preds = %13, %tailrecurse
  %.0 = phi i32 [ %15, %13 ], [ %10, %tailrecurse ]
  %.not9 = icmp eq i32 %.0, 0
  br i1 %.not9, label %20, label %17

17:                                               ; preds = %16
  %18 = load i8, ptr %6, align 2
  %19 = or i8 %18, 2
  store i8 %19, ptr %6, align 2
  br label %20

20:                                               ; preds = %17, %16
  %21 = getelementptr inbounds i8, ptr %.tr, i64 8
  %22 = load ptr, ptr %21, align 8
  %.not10 = icmp eq ptr %22, null
  %23 = or i32 %.0, %accumulator.tr
  br i1 %.not10, label %24, label %tailrecurse

24:                                               ; preds = %20
  ret i32 %23
}